; ModuleID = '63/1431.c'
source_filename = "63/1431.c"
target datalayout = "e-m:e-p270:32:32-p271:32:32-p272:64:64-i64:64-f80:128-n8:16:32:64-S128"
target triple = "x86_64-pc-linux-gnu"

@.str = private unnamed_addr constant [5 x i8] c"%d%d\00", align 1
@.str.1 = private unnamed_addr constant [3 x i8] c"%d\00", align 1
@.str.2 = private unnamed_addr constant [4 x i8] c"%d \00", align 1
@.str.3 = private unnamed_addr constant [4 x i8] c"%d\0A\00", align 1

; Function Attrs: noinline nounwind uwtable
define dso_local i32 @main() #0 {
  %1 = alloca i32, align 4
  %2 = alloca i32, align 4
  %3 = alloca i32, align 4
  %4 = alloca i32, align 4
  %5 = alloca i32, align 4
  %6 = alloca i32, align 4
  %7 = alloca i32, align 4
  %8 = alloca i32, align 4
  %9 = alloca [100 x [100 x i32]], align 16
  %10 = alloca [100 x [100 x i32]], align 16
  %11 = alloca [100 x [100 x i32]], align 16
  store i32 0, i32* %1, align 4
  %12 = call i32 (i8*, ...) @__isoc99_scanf(i8* getelementptr inbounds ([5 x i8], [5 x i8]* @.str, i64 0, i64 0), i32* %2, i32* %3)
  store i32 0, i32* %6, align 4
  br label %13

13:                                               ; preds = %44, %0
  %14 = load i32, i32* %6, align 4
  %15 = icmp slt i32 %14, 100
  br i1 %15, label %16, label %47

16:                                               ; preds = %13
  store i32 0, i32* %7, align 4
  br label %17

17:                                               ; preds = %34, %16
  %18 = load i32, i32* %7, align 4
  %19 = icmp slt i32 %18, 100
  br i1 %19, label %20, label %37

20:                                               ; preds = %17
  %21 = load i32, i32* %6, align 4
  %22 = sext i32 %21 to i64
  %23 = getelementptr inbounds [100 x [100 x i32]], [100 x [100 x i32]]* %9, i64 0, i64 %22
  %24 = load i32, i32* %7, align 4
  %25 = sext i32 %24 to i64
  %26 = getelementptr inbounds [100 x i32], [100 x i32]* %23, i64 0, i64 %25
  %27 = call i32 (i8*, ...) @__isoc99_scanf(i8* getelementptr inbounds ([3 x i8], [3 x i8]* @.str.1, i64 0, i64 0), i32* %26)
  %28 = load i32, i32* %7, align 4
  %29 = load i32, i32* %3, align 4
  %30 = sub nsw i32 %29, 1
  %31 = icmp eq i32 %28, %30
  br i1 %31, label %32, label %33

32:                                               ; preds = %20
  br label %37

33:                                               ; preds = %20
  br label %34

34:                                               ; preds = %33
  %35 = load i32, i32* %7, align 4
  %36 = add nsw i32 %35, 1
  store i32 %36, i32* %7, align 4
  br label %17

37:                                               ; preds = %32, %17
  %38 = load i32, i32* %6, align 4
  %39 = load i32, i32* %2, align 4
  %40 = sub nsw i32 %39, 1
  %41 = icmp eq i32 %38, %40
  br i1 %41, label %42, label %43

42:                                               ; preds = %37
  br label %47

43:                                               ; preds = %37
  br label %44

44:                                               ; preds = %43
  %45 = load i32, i32* %6, align 4
  %46 = add nsw i32 %45, 1
  store i32 %46, i32* %6, align 4
  br label %13

47:                                               ; preds = %42, %13
  %48 = call i32 (i8*, ...) @__isoc99_scanf(i8* getelementptr inbounds ([5 x i8], [5 x i8]* @.str, i64 0, i64 0), i32* %3, i32* %4)
  store i32 0, i32* %6, align 4
  br label %49

49:                                               ; preds = %80, %47
  %50 = load i32, i32* %6, align 4
  %51 = icmp slt i32 %50, 100
  br i1 %51, label %52, label %83

52:                                               ; preds = %49
  store i32 0, i32* %7, align 4
  br label %53

53:                                               ; preds = %70, %52
  %54 = load i32, i32* %7, align 4
  %55 = icmp slt i32 %54, 100
  br i1 %55, label %56, label %73

56:                                               ; preds = %53
  %57 = load i32, i32* %6, align 4
  %58 = sext i32 %57 to i64
  %59 = getelementptr inbounds [100 x [100 x i32]], [100 x [100 x i32]]* %10, i64 0, i64 %58
  %60 = load i32, i32* %7, align 4
  %61 = sext i32 %60 to i64
  %62 = getelementptr inbounds [100 x i32], [100 x i32]* %59, i64 0, i64 %61
  %63 = call i32 (i8*, ...) @__isoc99_scanf(i8* getelementptr inbounds ([3 x i8], [3 x i8]* @.str.1, i64 0, i64 0), i32* %62)
  %64 = load i32, i32* %7, align 4
  %65 = load i32, i32* %4, align 4
  %66 = sub nsw i32 %65, 1
  %67 = icmp eq i32 %64, %66
  br i1 %67, label %68, label %69

68:                                               ; preds = %56
  br label %73

69:                                               ; preds = %56
  br label %70

70:                                               ; preds = %69
  %71 = load i32, i32* %7, align 4
  %72 = add nsw i32 %71, 1
  store i32 %72, i32* %7, align 4
  br label %53

73:                                               ; preds = %68, %53
  %74 = load i32, i32* %6, align 4
  %75 = load i32, i32* %3, align 4
  %76 = sub nsw i32 %75, 1
  %77 = icmp eq i32 %74, %76
  br i1 %77, label %78, label %79

78:                                               ; preds = %73
  br label %83

79:                                               ; preds = %73
  br label %80

80:                                               ; preds = %79
  %81 = load i32, i32* %6, align 4
  %82 = add nsw i32 %81, 1
  store i32 %82, i32* %6, align 4
  br label %49

83:                                               ; preds = %78, %49
  store i32 0, i32* %6, align 4
  br label %84

84:                                               ; preds = %131, %83
  %85 = load i32, i32* %6, align 4
  %86 = load i32, i32* %2, align 4
  %87 = icmp slt i32 %85, %86
  br i1 %87, label %88, label %134

88:                                               ; preds = %84
  store i32 0, i32* %7, align 4
  br label %89

89:                                               ; preds = %127, %88
  %90 = load i32, i32* %7, align 4
  %91 = load i32, i32* %4, align 4
  %92 = icmp slt i32 %90, %91
  br i1 %92, label %93, label %130

93:                                               ; preds = %89
  store i32 0, i32* %8, align 4
  store i32 0, i32* %5, align 4
  br label %94

94:                                               ; preds = %116, %93
  %95 = load i32, i32* %5, align 4
  %96 = load i32, i32* %3, align 4
  %97 = icmp slt i32 %95, %96
  br i1 %97, label %98, label %119

98:                                               ; preds = %94
  %99 = load i32, i32* %8, align 4
  %100 = load i32, i32* %6, align 4
  %101 = sext i32 %100 to i64
  %102 = getelementptr inbounds [100 x [100 x i32]], [100 x [100 x i32]]* %9, i64 0, i64 %101
  %103 = load i32, i32* %5, align 4
  %104 = sext i32 %103 to i64
  %105 = getelementptr inbounds [100 x i32], [100 x i32]* %102, i64 0, i64 %104
  %106 = load i32, i32* %105, align 4
  %107 = load i32, i32* %5, align 4
  %108 = sext i32 %107 to i64
  %109 = getelementptr inbounds [100 x [100 x i32]], [100 x [100 x i32]]* %10, i64 0, i64 %108
  %110 = load i32, i32* %7, align 4
  %111 = sext i32 %110 to i64
  %112 = getelementptr inbounds [100 x i32], [100 x i32]* %109, i64 0, i64 %111
  %113 = load i32, i32* %112, align 4
  %114 = mul nsw i32 %106, %113
  %115 = add nsw i32 %99, %114
  store i32 %115, i32* %8, align 4
  br label %116

116:                                              ; preds = %98
  %117 = load i32, i32* %5, align 4
  %118 = add nsw i32 %117, 1
  store i32 %118, i32* %5, align 4
  br label %94

119:                                              ; preds = %94
  %120 = load i32, i32* %8, align 4
  %121 = load i32, i32* %6, align 4
  %122 = sext i32 %121 to i64
  %123 = getelementptr inbounds [100 x [100 x i32]], [100 x [100 x i32]]* %11, i64 0, i64 %122
  %124 = load i32, i32* %7, align 4
  %125 = sext i32 %124 to i64
  %126 = getelementptr inbounds [100 x i32], [100 x i32]* %123, i64 0, i64 %125
  store i32 %120, i32* %126, align 4
  br label %127

127:                                              ; preds = %119
  %128 = load i32, i32* %7, align 4
  %129 = add nsw i32 %128, 1
  store i32 %129, i32* %7, align 4
  br label %89

130:                                              ; preds = %89
  br label %131

131:                                              ; preds = %130
  %132 = load i32, i32* %6, align 4
  %133 = add nsw i32 %132, 1
  store i32 %133, i32* %6, align 4
  br label %84

134:                                              ; preds = %84
  store i32 0, i32* %6, align 4
  br label %135

135:                                              ; preds = %167, %134
  %136 = load i32, i32* %6, align 4
  %137 = load i32, i32* %2, align 4
  %138 = icmp slt i32 %136, %137
  br i1 %138, label %139, label %170

139:                                              ; preds = %135
  store i32 0, i32* %7, align 4
  br label %140

140:                                              ; preds = %154, %139
  %141 = load i32, i32* %7, align 4
  %142 = load i32, i32* %4, align 4
  %143 = sub nsw i32 %142, 1
  %144 = icmp slt i32 %141, %143
  br i1 %144, label %145, label %157

145:                                              ; preds = %140
  %146 = load i32, i32* %6, align 4
  %147 = sext i32 %146 to i64
  %148 = getelementptr inbounds [100 x [100 x i32]], [100 x [100 x i32]]* %11, i64 0, i64 %147
  %149 = load i32, i32* %7, align 4
  %150 = sext i32 %149 to i64
  %151 = getelementptr inbounds [100 x i32], [100 x i32]* %148, i64 0, i64 %150
  %152 = load i32, i32* %151, align 4
  %153 = call i32 (i8*, ...) @printf(i8* getelementptr inbounds ([4 x i8], [4 x i8]* @.str.2, i64 0, i64 0), i32 %152)
  br label %154

154:                                              ; preds = %145
  %155 = load i32, i32* %7, align 4
  %156 = add nsw i32 %155, 1
  store i32 %156, i32* %7, align 4
  br label %140

157:                                              ; preds = %140
  %158 = load i32, i32* %6, align 4
  %159 = sext i32 %158 to i64
  %160 = getelementptr inbounds [100 x [100 x i32]], [100 x [100 x i32]]* %11, i64 0, i64 %159
  %161 = load i32, i32* %4, align 4
  %162 = sub nsw i32 %161, 1
  %163 = sext i32 %162 to i64
  %164 = getelementptr inbounds [100 x i32], [100 x i32]* %160, i64 0, i64 %163
  %165 = load i32, i32* %164, align 4
  %166 = call i32 (i8*, ...) @printf(i8* getelementptr inbounds ([4 x i8], [4 x i8]* @.str.3, i64 0, i64 0), i32 %165)
  br label %167

167:                                              ; preds = %157
  %168 = load i32, i32* %6, align 4
  %169 = add nsw i32 %168, 1
  store i32 %169, i32* %6, align 4
  br label %135

170:                                              ; preds = %135
  ret i32 0
}

declare dso_local i32 @__isoc99_scanf(i8*, ...) #1

declare dso_local i32 @printf(i8*, ...) #1


!llvm.module.flags = !{!0}
!llvm.ident = !{!1}

!0 = !{i32 1, !"wchar_size", i32 4}
!1 = !{!"clang version 10.0.0-4ubuntu1 "}
